; Function Attrs: nofree nosync nounwind memory(argmem: readwrite) uwtable
define void @Abc_QuickSort2Dec_rec(ptr noundef captures(none) %0, i32 noundef %1, i32 noundef %2) local_unnamed_addr #1 {
  %4 = sext i32 %2 to i64
  %5 = getelementptr inbounds i64, ptr %0, i64 %4
  %.not69 = icmp slt i32 %1, %2
  br i1 %.not69, label %.lr.ph, label %Abc_SelectSortDec.exit

.lr.ph:                                           ; preds = %3, %tailrecurse
  %.tr5570 = phi i32 [ %51, %tailrecurse ], [ %1, %3 ]
  %6 = sub nsw i32 %2, %.tr5570
  %7 = icmp slt i32 %6, 10
  br i1 %7, label %.lr.ph27.preheader.i, label %.preheader57

.preheader57:                                     ; preds = %.lr.ph
  %8 = add nsw i32 %.tr5570, -1
  %9 = load i64, ptr %5, align 8
  %10 = trunc i64 %9 to i32
  br label %29

.lr.ph27.preheader.i:                             ; preds = %.lr.ph
  %11 = sext i32 %.tr5570 to i64
  %12 = getelementptr inbounds i64, ptr %0, i64 %11
  %13 = add nsw i32 %6, 1
  %wide.trip.count35.i = zext nneg i32 %6 to i64
  %wide.trip.count.i = zext nneg i32 %13 to i64
  br label %.lr.ph.preheader.i

.lr.ph.preheader.i:                               ; preds = %._crit_edge.i, %.lr.ph27.preheader.i
  %indvars.iv32.i = phi i64 [ 0, %.lr.ph27.preheader.i ], [ %indvars.iv.next33.i, %._crit_edge.i ]
  %indvars.iv.i = phi i64 [ 1, %.lr.ph27.preheader.i ], [ %indvars.iv.next.i, %._crit_edge.i ]
  %14 = trunc nuw nsw i64 %indvars.iv32.i to i32
  br label %.lr.ph.i

.lr.ph.i:                                         ; preds = %.lr.ph.i, %.lr.ph.preheader.i
  %indvars.iv29.i = phi i64 [ %indvars.iv.i, %.lr.ph.preheader.i ], [ %indvars.iv.next30.i, %.lr.ph.i ]
  %.02124.i = phi i32 [ %14, %.lr.ph.preheader.i ], [ %spec.select.i, %.lr.ph.i ]
  %15 = getelementptr inbounds nuw i64, ptr %12, i64 %indvars.iv29.i
  %16 = load i64, ptr %15, align 8
  %17 = trunc i64 %16 to i32
  %18 = sext i32 %.02124.i to i64
  %19 = getelementptr inbounds i64, ptr %12, i64 %18
  %20 = load i64, ptr %19, align 8
  %21 = trunc i64 %20 to i32
  %22 = icmp ugt i32 %17, %21
  %23 = trunc nuw nsw i64 %indvars.iv29.i to i32
  %spec.select.i = select i1 %22, i32 %23, i32 %.02124.i
  %indvars.iv.next30.i = add nuw nsw i64 %indvars.iv29.i, 1
  %exitcond.not.i = icmp eq i64 %indvars.iv.next30.i, %wide.trip.count.i
  br i1 %exitcond.not.i, label %._crit_edge.i, label %.lr.ph.i, !llvm.loop !32

._crit_edge.i:                                    ; preds = %.lr.ph.i
  %indvars.iv.next33.i = add nuw nsw i64 %indvars.iv32.i, 1
  %24 = getelementptr inbounds nuw i64, ptr %12, i64 %indvars.iv32.i
  %25 = load i64, ptr %24, align 8
  %26 = sext i32 %spec.select.i to i64
  %27 = getelementptr inbounds i64, ptr %12, i64 %26
  %28 = load i64, ptr %27, align 8
  store i64 %28, ptr %24, align 8
  store i64 %25, ptr %27, align 8
  %indvars.iv.next.i = add nuw nsw i64 %indvars.iv.i, 1
  %exitcond36.not.i = icmp eq i64 %indvars.iv.next33.i, %wide.trip.count35.i
  br i1 %exitcond36.not.i, label %Abc_SelectSortDec.exit, label %.lr.ph.preheader.i, !llvm.loop !33

29:                                               ; preds = %.preheader57, %47
  %.045 = phi i32 [ %44, %47 ], [ %2, %.preheader57 ]
  %.0 = phi i32 [ %37, %47 ], [ %8, %.preheader57 ]
  %30 = sext i32 %.0 to i64
  br label %31

31:                                               ; preds = %31, %29
  %indvars.iv = phi i64 [ %indvars.iv.next, %31 ], [ %30, %29 ]
  %indvars.iv.next = add nsw i64 %indvars.iv, 1
  %32 = getelementptr inbounds i64, ptr %0, i64 %indvars.iv.next
  %33 = load i64, ptr %32, align 8
  %34 = trunc i64 %33 to i32
  %35 = icmp ugt i32 %34, %10
  br i1 %35, label %31, label %.preheader, !llvm.loop !34

.preheader:                                       ; preds = %31
  %36 = getelementptr inbounds i64, ptr %0, i64 %indvars.iv.next
  %37 = trunc nsw i64 %indvars.iv.next to i32
  %38 = sext i32 %.045 to i64
  br label %39

39:                                               ; preds = %.preheader, %39
  %indvars.iv82 = phi i64 [ %38, %.preheader ], [ %indvars.iv.next83, %39 ]
  %indvars.iv.next83 = add nsw i64 %indvars.iv82, -1
  %40 = getelementptr inbounds i64, ptr %0, i64 %indvars.iv.next83
  %41 = load i64, ptr %40, align 8
  %42 = trunc i64 %41 to i32
  %43 = icmp ule i32 %10, %42
  %44 = trunc nsw i64 %indvars.iv.next83 to i32
  %45 = icmp eq i32 %.tr5570, %44
  %or.cond = or i1 %45, %43
  br i1 %or.cond, label %46, label %39, !llvm.loop !35

46:                                               ; preds = %39
  %.not54 = icmp slt i64 %indvars.iv.next, %indvars.iv.next83
  br i1 %.not54, label %47, label %tailrecurse

47:                                               ; preds = %46
  %48 = getelementptr inbounds i64, ptr %0, i64 %indvars.iv.next83
  store i64 %41, ptr %36, align 8
  store i64 %33, ptr %48, align 8
  br label %29

tailrecurse:                                      ; preds = %46
  %49 = trunc nsw i64 %indvars.iv to i32
  %50 = load i64, ptr %5, align 8
  store i64 %50, ptr %36, align 8
  store i64 %33, ptr %5, align 8
  tail call void @Abc_QuickSort2Dec_rec(ptr noundef nonnull %0, i32 noundef %.tr5570, i32 noundef %49)
  %51 = add nsw i32 %49, 2
  %.not = icmp slt i32 %51, %2
  br i1 %.not, label %.lr.ph, label %Abc_SelectSortDec.exit

Abc_SelectSortDec.exit:                           ; preds = %tailrecurse, %._crit_edge.i, %3
  ret void
}